target datalayout = "e-m:e-p270:32:32-p271:32:32-p272:64:64-i64:64-i128:128-f80:128-n8:16:32:64-S128"
target triple = "x86_64-pc-linux-gnu"

%struct.ParamListInfoData = type { ptr, ptr, ptr, ptr, ptr, ptr, ptr, i32, [0 x %struct.ParamExternData] }
%struct.ParamExternData = type { i64, i8, i16, i32 }

; Function Attrs: nounwind uwtable
define dso_local void @SerializeParamList(ptr noundef %0, ptr noundef %1) #0 {
  %3 = alloca ptr, align 8
  %4 = alloca ptr, align 8
  %5 = alloca i32, align 4
  %6 = alloca i32, align 4
  %7 = alloca ptr, align 8
  %8 = alloca %struct.ParamExternData, align 8
  %9 = alloca i32, align 4
  %10 = alloca i16, align 2
  %11 = alloca i8, align 1
  store ptr %0, ptr %3, align 8
  store ptr %1, ptr %4, align 8
  call void @llvm.lifetime.start.p0(i64 4, ptr %5) #5
  call void @llvm.lifetime.start.p0(i64 4, ptr %6) #5
  %12 = load ptr, ptr %3, align 8
  %13 = icmp eq ptr %12, null
  br i1 %13, label %19, label %14

14:                                               ; preds = %2
  %15 = load ptr, ptr %3, align 8
  %16 = getelementptr inbounds nuw %struct.ParamListInfoData, ptr %15, i32 0, i32 7
  %17 = load i32, ptr %16, align 8
  %18 = icmp sle i32 %17, 0
  br i1 %18, label %19, label %20

19:                                               ; preds = %14, %2
  store i32 0, ptr %5, align 4
  br label %24

20:                                               ; preds = %14
  %21 = load ptr, ptr %3, align 8
  %22 = getelementptr inbounds nuw %struct.ParamListInfoData, ptr %21, i32 0, i32 7
  %23 = load i32, ptr %22, align 8
  store i32 %23, ptr %5, align 4
  br label %24

24:                                               ; preds = %20, %19
  %25 = load ptr, ptr %4, align 8
  %26 = load ptr, ptr %25, align 8
  call void @llvm.memcpy.p0.p0.i64(ptr align 1 %26, ptr align 4 %5, i64 4, i1 false)
  %27 = load ptr, ptr %4, align 8
  %28 = load ptr, ptr %27, align 8
  %29 = getelementptr inbounds nuw i8, ptr %28, i64 4
  store ptr %29, ptr %27, align 8
  store i32 0, ptr %6, align 4
  br label %30

30:                                               ; preds = %87, %24
  %31 = load i32, ptr %6, align 4
  %32 = load i32, ptr %5, align 4
  %33 = icmp slt i32 %31, %32
  br i1 %33, label %34, label %90

34:                                               ; preds = %30
  call void @llvm.lifetime.start.p0(i64 8, ptr %7) #5
  call void @llvm.lifetime.start.p0(i64 16, ptr %8) #5
  call void @llvm.lifetime.start.p0(i64 4, ptr %9) #5
  call void @llvm.lifetime.start.p0(i64 2, ptr %10) #5
  call void @llvm.lifetime.start.p0(i64 1, ptr %11) #5
  %35 = load ptr, ptr %3, align 8
  %36 = getelementptr inbounds nuw %struct.ParamListInfoData, ptr %35, i32 0, i32 0
  %37 = load ptr, ptr %36, align 8
  %38 = icmp ne ptr %37, null
  br i1 %38, label %39, label %47

39:                                               ; preds = %34
  %40 = load ptr, ptr %3, align 8
  %41 = getelementptr inbounds nuw %struct.ParamListInfoData, ptr %40, i32 0, i32 0
  %42 = load ptr, ptr %41, align 8
  %43 = load ptr, ptr %3, align 8
  %44 = load i32, ptr %6, align 4
  %45 = add i32 %44, 1
  %46 = call ptr %42(ptr noundef %43, i32 noundef %45, i1 noundef zeroext false, ptr noundef %8)
  store ptr %46, ptr %7, align 8
  br label %53

47:                                               ; preds = %34
  %48 = load ptr, ptr %3, align 8
  %49 = getelementptr inbounds nuw %struct.ParamListInfoData, ptr %48, i32 0, i32 8
  %50 = load i32, ptr %6, align 4
  %51 = sext i32 %50 to i64
  %52 = getelementptr inbounds [0 x %struct.ParamExternData], ptr %49, i64 0, i64 %51
  store ptr %52, ptr %7, align 8
  br label %53

53:                                               ; preds = %47, %39
  %54 = load ptr, ptr %7, align 8
  %55 = getelementptr inbounds nuw %struct.ParamExternData, ptr %54, i32 0, i32 3
  %56 = load i32, ptr %55, align 4
  store i32 %56, ptr %9, align 4
  %57 = load ptr, ptr %4, align 8
  %58 = load ptr, ptr %57, align 8
  call void @llvm.memcpy.p0.p0.i64(ptr align 1 %58, ptr align 4 %9, i64 4, i1 false)
  %59 = load ptr, ptr %4, align 8
  %60 = load ptr, ptr %59, align 8
  %61 = getelementptr inbounds nuw i8, ptr %60, i64 4
  store ptr %61, ptr %59, align 8
  %62 = load ptr, ptr %4, align 8
  %63 = load ptr, ptr %62, align 8
  %64 = load ptr, ptr %7, align 8
  %65 = getelementptr inbounds nuw %struct.ParamExternData, ptr %64, i32 0, i32 2
  call void @llvm.memcpy.p0.p0.i64(ptr align 1 %63, ptr align 2 %65, i64 2, i1 false)
  %66 = load ptr, ptr %4, align 8
  %67 = load ptr, ptr %66, align 8
  %68 = getelementptr inbounds nuw i8, ptr %67, i64 2
  store ptr %68, ptr %66, align 8
  %69 = load i32, ptr %9, align 4
  %70 = icmp ne i32 %69, 0
  br i1 %70, label %71, label %73

71:                                               ; preds = %53
  %72 = load i32, ptr %9, align 4
  call void @get_typlenbyval(i32 noundef %72, ptr noundef %10, ptr noundef %11)
  br label %74

73:                                               ; preds = %53
  store i16 8, ptr %10, align 2
  store i8 1, ptr %11, align 1
  br label %74

74:                                               ; preds = %73, %71
  %75 = load ptr, ptr %7, align 8
  %76 = getelementptr inbounds nuw %struct.ParamExternData, ptr %75, i32 0, i32 0
  %77 = load i64, ptr %76, align 8
  %78 = load ptr, ptr %7, align 8
  %79 = getelementptr inbounds nuw %struct.ParamExternData, ptr %78, i32 0, i32 1
  %80 = load i8, ptr %79, align 8, !range !4, !noundef !5
  %81 = trunc i8 %80 to i1
  %82 = load i8, ptr %11, align 1, !range !4, !noundef !5
  %83 = trunc i8 %82 to i1
  %84 = load i16, ptr %10, align 2
  %85 = sext i16 %84 to i32
  %86 = load ptr, ptr %4, align 8
  call void @datumSerialize(i64 noundef %77, i1 noundef zeroext %81, i1 noundef zeroext %83, i32 noundef %85, ptr noundef %86)
  call void @llvm.lifetime.end.p0(i64 1, ptr %11) #5
  call void @llvm.lifetime.end.p0(i64 2, ptr %10) #5
  call void @llvm.lifetime.end.p0(i64 4, ptr %9) #5
  call void @llvm.lifetime.end.p0(i64 16, ptr %8) #5
  call void @llvm.lifetime.end.p0(i64 8, ptr %7) #5
  br label %87

87:                                               ; preds = %74
  %88 = load i32, ptr %6, align 4
  %89 = add i32 %88, 1
  store i32 %89, ptr %6, align 4
  br label %30, !llvm.loop !9

90:                                               ; preds = %30
  call void @llvm.lifetime.end.p0(i64 4, ptr %6) #5
  call void @llvm.lifetime.end.p0(i64 4, ptr %5) #5
  ret void
}