; Function Attrs: nounwind uwtable
define dso_local void @SerializeParamList(ptr noundef %0, ptr noundef %1) local_unnamed_addr #0 {
  %3 = alloca %struct.ParamExternData, align 8
  %4 = alloca i16, align 2
  %5 = alloca i8, align 1
  %6 = icmp eq ptr %0, null
  br i1 %6, label %.thread, label %10

.thread:                                          ; preds = %2
  %7 = load ptr, ptr %1, align 8
  store i32 0, ptr %7, align 1
  %8 = load ptr, ptr %1, align 8
  %9 = getelementptr inbounds nuw i8, ptr %8, i64 4
  store ptr %9, ptr %1, align 8
  br label %._crit_edge

10:                                               ; preds = %2
  %11 = getelementptr inbounds nuw i8, ptr %0, i64 56
  %12 = load i32, ptr %11, align 8
  %spec.select = tail call i32 @llvm.smax.i32(i32 %12, i32 0)
  %13 = load ptr, ptr %1, align 8
  store i32 %spec.select, ptr %13, align 1
  %14 = load ptr, ptr %1, align 8
  %15 = getelementptr inbounds nuw i8, ptr %14, i64 4
  store ptr %15, ptr %1, align 8
  %.not33 = icmp slt i32 %12, 1
  br i1 %.not33, label %._crit_edge, label %.lr.ph

.lr.ph:                                           ; preds = %10
  %16 = getelementptr inbounds nuw i8, ptr %0, i64 64
  %wide.trip.count = zext nneg i32 %spec.select to i64
  br label %17

17:                                               ; preds = %.lr.ph, %39
  %indvars.iv = phi i64 [ 0, %.lr.ph ], [ %indvars.iv.next, %39 ]
  call void @llvm.lifetime.start.p0(i64 16, ptr nonnull %3) #7
  call void @llvm.lifetime.start.p0(i64 2, ptr nonnull %4) #7
  call void @llvm.lifetime.start.p0(i64 1, ptr nonnull %5) #7
  %18 = load ptr, ptr %0, align 8
  %.not = icmp eq ptr %18, null
  br i1 %.not, label %23, label %19

19:                                               ; preds = %17
  %20 = trunc i64 %indvars.iv to i32
  %21 = add i32 %20, 1
  %22 = call ptr %18(ptr noundef nonnull %0, i32 noundef %21, i1 noundef zeroext false, ptr noundef nonnull %3) #7
  br label %25

23:                                               ; preds = %17
  %24 = getelementptr inbounds nuw [0 x %struct.ParamExternData], ptr %16, i64 0, i64 %indvars.iv
  br label %25

25:                                               ; preds = %23, %19
  %.025 = phi ptr [ %22, %19 ], [ %24, %23 ]
  %26 = getelementptr inbounds nuw i8, ptr %.025, i64 12
  %27 = load i32, ptr %26, align 4
  %28 = load ptr, ptr %1, align 8
  store i32 %27, ptr %28, align 1
  %29 = load ptr, ptr %1, align 8
  %30 = getelementptr inbounds nuw i8, ptr %29, i64 4
  store ptr %30, ptr %1, align 8
  %31 = getelementptr inbounds nuw i8, ptr %.025, i64 10
  %32 = load i16, ptr %31, align 2
  store i16 %32, ptr %30, align 1
  %33 = load ptr, ptr %1, align 8
  %34 = getelementptr inbounds nuw i8, ptr %33, i64 2
  store ptr %34, ptr %1, align 8
  %.not31 = icmp eq i32 %27, 0
  br i1 %.not31, label %38, label %35

35:                                               ; preds = %25
  call void @get_typlenbyval(i32 noundef %27, ptr noundef nonnull %4, ptr noundef nonnull %5) #7
  %.pre = load i8, ptr %5, align 1, !range !4
  %.pre35 = load i16, ptr %4, align 2
  %36 = trunc nuw i8 %.pre to i1
  %37 = sext i16 %.pre35 to i32
  br label %39

38:                                               ; preds = %25
  store i16 8, ptr %4, align 2
  store i8 1, ptr %5, align 1
  br label %39

39:                                               ; preds = %38, %35
  %40 = phi i32 [ 8, %38 ], [ %37, %35 ]
  %41 = phi i1 [ true, %38 ], [ %36, %35 ]
  %42 = load i64, ptr %.025, align 8
  %43 = getelementptr inbounds nuw i8, ptr %.025, i64 8
  %44 = load i8, ptr %43, align 8, !range !4, !noundef !5
  %45 = trunc nuw i8 %44 to i1
  call void @datumSerialize(i64 noundef %42, i1 noundef zeroext %45, i1 noundef zeroext %41, i32 noundef %40, ptr noundef nonnull %1) #7
  call void @llvm.lifetime.end.p0(i64 1, ptr nonnull %5) #7
  call void @llvm.lifetime.end.p0(i64 2, ptr nonnull %4) #7
  call void @llvm.lifetime.end.p0(i64 16, ptr nonnull %3) #7
  %indvars.iv.next = add nuw nsw i64 %indvars.iv, 1
  %exitcond.not = icmp eq i64 %indvars.iv.next, %wide.trip.count
  br i1 %exitcond.not, label %._crit_edge, label %17, !llvm.loop !9

._crit_edge:                                      ; preds = %39, %.thread, %10
  ret void
}